; Function Attrs: inlinehint mustprogress nofree norecurse nosync nounwind willreturn memory(read, argmem: readwrite, inaccessiblemem: none) uwtable
define internal fastcc void @latm_get_value(ptr noundef nonnull captures(none) %0) unnamed_addr #9 {
  %2 = getelementptr inbounds nuw i8, ptr %0, i64 16
  %3 = load i32, ptr %2, align 8, !tbaa !105
  %4 = getelementptr inbounds nuw i8, ptr %0, i64 24
  %5 = load i32, ptr %4, align 8, !tbaa !103
  %6 = load ptr, ptr %0, align 8, !tbaa !100
  %7 = lshr i32 %3, 3
  %8 = zext nneg i32 %7 to i64
  %9 = getelementptr inbounds nuw i8, ptr %6, i64 %8
  %10 = load i32, ptr %9, align 1, !tbaa !27
  %11 = tail call i32 @llvm.bswap.i32(i32 %10)
  %12 = and i32 %3, 7
  %13 = shl i32 %11, %12
  %14 = add i32 %3, 2
  %15 = tail call i32 @llvm.umin.i32(i32 %5, i32 %14)
  store i32 %15, ptr %2, align 8, !tbaa !105
  %16 = lshr i32 %13, 27
  %17 = and i32 %16, 24
  %18 = icmp samesign ult i32 %17, 18
  br i1 %18, label %19, label %22

19:                                               ; preds = %1
  %20 = add i32 %15, 8
  %21 = add i32 %20, %17
  br label %get_bits_long.exit

22:                                               ; preds = %1
  %23 = add i32 %15, 16
  %24 = tail call i32 @llvm.umin.i32(i32 %5, i32 %23)
  store i32 %24, ptr %2, align 8, !tbaa !105
  %25 = add nsw i32 %17, -8
  %26 = add i32 %25, %24
  br label %get_bits_long.exit

get_bits_long.exit:                               ; preds = %19, %22
  %.sink1 = phi i32 [ %21, %19 ], [ %26, %22 ]
  %27 = tail call i32 @llvm.umin.i32(i32 %5, i32 %.sink1)
  store i32 %27, ptr %2, align 8, !tbaa !105
  ret void
}